target datalayout = "e-m:e-p270:32:32-p271:32:32-p272:64:64-i64:64-i128:128-f80:128-n8:16:32:64-S128"
target triple = "x86_64-pc-linux-gnu"

%struct.point = type { i32, i32 }
%struct.nitem = type { %struct.dtlink_s_, i32, %struct.point, ptr, ptr, ptr, %struct.box }
%struct.dtlink_s_ = type { ptr, %union.anon }
%union.anon = type { ptr }
%struct.box = type { %struct.point, %struct.point }

; Function Attrs: nounwind uwtable
define internal i32 @intersectX(ptr noundef %0, ptr noundef %1) #0 {
  %3 = alloca ptr, align 8
  %4 = alloca ptr, align 8
  store ptr %0, ptr %3, align 8, !tbaa !10
  store ptr %1, ptr %4, align 8, !tbaa !10
  %5 = load ptr, ptr %3, align 8, !tbaa !10
  %6 = getelementptr inbounds nuw %struct.nitem, ptr %5, i32 0, i32 6
  %7 = getelementptr inbounds nuw %struct.box, ptr %6, i32 0, i32 0
  %8 = getelementptr inbounds nuw %struct.point, ptr %7, i32 0, i32 0
  %9 = load i32, ptr %8, align 8, !tbaa !68
  %10 = load ptr, ptr %4, align 8, !tbaa !10
  %11 = getelementptr inbounds nuw %struct.nitem, ptr %10, i32 0, i32 6
  %12 = getelementptr inbounds nuw %struct.box, ptr %11, i32 0, i32 1
  %13 = getelementptr inbounds nuw %struct.point, ptr %12, i32 0, i32 0
  %14 = load i32, ptr %13, align 8, !tbaa !67
  %15 = icmp sle i32 %9, %14
  br i1 %15, label %16, label %28

16:                                               ; preds = %2
  %17 = load ptr, ptr %4, align 8, !tbaa !10
  %18 = getelementptr inbounds nuw %struct.nitem, ptr %17, i32 0, i32 6
  %19 = getelementptr inbounds nuw %struct.box, ptr %18, i32 0, i32 0
  %20 = getelementptr inbounds nuw %struct.point, ptr %19, i32 0, i32 0
  %21 = load i32, ptr %20, align 8, !tbaa !68
  %22 = load ptr, ptr %3, align 8, !tbaa !10
  %23 = getelementptr inbounds nuw %struct.nitem, ptr %22, i32 0, i32 6
  %24 = getelementptr inbounds nuw %struct.box, ptr %23, i32 0, i32 1
  %25 = getelementptr inbounds nuw %struct.point, ptr %24, i32 0, i32 0
  %26 = load i32, ptr %25, align 8, !tbaa !67
  %27 = icmp sle i32 %21, %26
  br label %28

28:                                               ; preds = %16, %2
  %29 = phi i1 [ false, %2 ], [ %27, %16 ]
  %30 = zext i1 %29 to i32
  ret i32 %30
}